ARM GAS  C:\Users\mrgas\AppData\Local\Temp\ccayE1U3.s 			page 1


   1              		.syntax unified
   2              		.cpu cortex-m3
   3              		.fpu softvfp
   4              		.eabi_attribute 20, 1
   5              		.eabi_attribute 21, 1
   6              		.eabi_attribute 23, 3
   7              		.eabi_attribute 24, 1
   8              		.eabi_attribute 25, 1
   9              		.eabi_attribute 26, 1
  10              		.eabi_attribute 30, 1
  11              		.eabi_attribute 34, 1
  12              		.eabi_attribute 18, 4
  13              		.thumb
  14              		.syntax unified
  15              		.file	"main.c"
  16              		.text
  17              	.Ltext0:
  18              		.cfi_sections	.debug_frame
  19              		.section	.text.ISR_Timer1_handler,"ax",%progbits
  20              		.align	2
  21              		.global	ISR_Timer1_handler
  22              		.thumb
  23              		.thumb_func
  24              		.type	ISR_Timer1_handler, %function
  25              	ISR_Timer1_handler:
  26              	.LFB66:
  27              		.file 1 "main.c"
   1:main.c        **** /* ========================================
   2:main.c        ****  *
   3:main.c        ****  * Copyright YOUR COMPANY, THE YEAR
   4:main.c        ****  * All Rights Reserved
   5:main.c        ****  * UNPUBLISHED, LICENSED SOFTWARE.
   6:main.c        ****  *
   7:main.c        ****  * CONFIDENTIAL AND PROPRIETARY INFORMATION
   8:main.c        ****  * WHICH IS THE PROPERTY OF your company.
   9:main.c        ****  *
  10:main.c        ****  * ========================================
  11:main.c        **** */
  12:main.c        **** #include "project.h"
  13:main.c        **** #include <stdio.h>
  14:main.c        **** #include <stdbool.h>
  15:main.c        **** #include "StepperMotor.h"
  16:main.c        **** 
  17:main.c        **** 
  18:main.c        **** 
  19:main.c        **** //Prototypes
  20:main.c        **** CY_ISR_PROTO(ISR_UART_rx_handler); //UART Interrupt
  21:main.c        **** CY_ISR_PROTO(ISR_Timer1_handler); //Timer1 Interrupt
  22:main.c        **** 
  23:main.c        **** void handleByteReceived(uint8_t byteReceived); //Helper function for UART isr
  24:main.c        **** 
  25:main.c        **** //Global Variable
  26:main.c        **** char buffer[256]; //Used for output on terminal
  27:main.c        **** 
  28:main.c        **** 
  29:main.c        **** int main(void)
  30:main.c        **** {
ARM GAS  C:\Users\mrgas\AppData\Local\Temp\ccayE1U3.s 			page 2


  31:main.c        ****     CyGlobalIntEnable; //Enable global interrupts.
  32:main.c        ****     //Inits
  33:main.c        ****     isr_uart_rx_StartEx(ISR_UART_rx_handler); 
  34:main.c        ****     timer1_isr_StartEx(ISR_Timer1_handler);
  35:main.c        ****     UART_1_Start();
  36:main.c        ****     initStepperMotor();
  37:main.c        ****     //Start up message
  38:main.c        ****     UART_1_PutString("DC-Motor-PWM application started\r\n");
  39:main.c        ****     UART_1_PutString("0: Stop\r\n");
  40:main.c        ****     UART_1_PutString("1: FullDrive\r\n");
  41:main.c        ****     UART_1_PutString("2: WaveDrive\r\n");
  42:main.c        ****     UART_1_PutString("q: Decrease speed\r\n");
  43:main.c        ****     UART_1_PutString("w: Increase speed\r\n");
  44:main.c        ****     UART_1_PutString("a: Go forward\r\n");
  45:main.c        ****     UART_1_PutString("s: Go backward\r\n");
  46:main.c        ****     UART_1_PutString("e: For one rotation\r\n");
  47:main.c        **** 
  48:main.c        ****     for(;;)
  49:main.c        ****     {
  50:main.c        ****        //Empty
  51:main.c        ****     }
  52:main.c        **** }
  53:main.c        **** 
  54:main.c        **** CY_ISR(ISR_UART_rx_handler)
  55:main.c        **** {
  56:main.c        ****     uint8_t bytesToRead = UART_1_GetRxBufferSize();
  57:main.c        ****     //Read bytes...
  58:main.c        ****     while (bytesToRead > 0)
  59:main.c        ****     {
  60:main.c        ****         uint8_t byteReceived = UART_1_ReadRxData();
  61:main.c        ****         UART_1_WriteTxData(byteReceived); // echo back
  62:main.c        ****         
  63:main.c        ****         handleByteReceived(byteReceived);
  64:main.c        ****         
  65:main.c        ****         bytesToRead--;
  66:main.c        ****     }
  67:main.c        **** }
  68:main.c        **** 
  69:main.c        **** CY_ISR(ISR_Timer1_handler)
  70:main.c        **** {
  28              		.loc 1 70 0
  29              		.cfi_startproc
  30              		@ args = 0, pretend = 0, frame = 0
  31              		@ frame_needed = 0, uses_anonymous_args = 0
  32 0000 08B5     		push	{r3, lr}
  33              		.cfi_def_cfa_offset 8
  34              		.cfi_offset 3, -8
  35              		.cfi_offset 14, -4
  71:main.c        ****     //Handle the current Drive
  72:main.c        ****     switch(currentDrive)
  36              		.loc 1 72 0
  37 0002 0D4B     		ldr	r3, .L10
  38 0004 1B78     		ldrb	r3, [r3]	@ zero_extendqisi2
  39 0006 DBB2     		uxtb	r3, r3
  40 0008 042B     		cmp	r3, #4
  41 000a 13D8     		bhi	.L1
  42 000c DFE803F0 		tbb	[pc, r3]
ARM GAS  C:\Users\mrgas\AppData\Local\Temp\ccayE1U3.s 			page 3


  43              	.L4:
  44 0010 03       		.byte	(.L3-.L4)/2
  45 0011 07       		.byte	(.L5-.L4)/2
  46 0012 0A       		.byte	(.L6-.L4)/2
  47 0013 0D       		.byte	(.L7-.L4)/2
  48 0014 10       		.byte	(.L8-.L4)/2
  49 0015 00       		.p2align 1
  50              	.L3:
  73:main.c        ****     {
  74:main.c        ****         case None:
  75:main.c        ****             currentDrive = None;
  51              		.loc 1 75 0
  52 0016 0022     		movs	r2, #0
  53 0018 074B     		ldr	r3, .L10
  54 001a 1A70     		strb	r2, [r3]
  76:main.c        ****             break;
  55              		.loc 1 76 0
  56 001c 08BD     		pop	{r3, pc}
  57              	.L5:
  77:main.c        ****         case WaveDrive:
  78:main.c        ****             waveDrive();
  58              		.loc 1 78 0
  59 001e FFF7FEFF 		bl	waveDrive
  60              	.LVL0:
  79:main.c        ****             break;
  61              		.loc 1 79 0
  62 0022 08BD     		pop	{r3, pc}
  63              	.L6:
  80:main.c        ****         case FullDrive:
  81:main.c        ****             fullDrive();
  64              		.loc 1 81 0
  65 0024 FFF7FEFF 		bl	fullDrive
  66              	.LVL1:
  82:main.c        ****             break;
  67              		.loc 1 82 0
  68 0028 08BD     		pop	{r3, pc}
  69              	.L7:
  83:main.c        ****         case HalfDrive:
  84:main.c        ****             halfDrive();
  70              		.loc 1 84 0
  71 002a FFF7FEFF 		bl	halfDrive
  72              	.LVL2:
  85:main.c        ****             break;
  73              		.loc 1 85 0
  74 002e 08BD     		pop	{r3, pc}
  75              	.L8:
  86:main.c        ****         case OneRotation:
  87:main.c        ****             oneRotaion();
  76              		.loc 1 87 0
  77 0030 FFF7FEFF 		bl	oneRotaion
  78              	.LVL3:
  79              	.L1:
  80 0034 08BD     		pop	{r3, pc}
  81              	.L11:
  82 0036 00BF     		.align	2
  83              	.L10:
  84 0038 00000000 		.word	currentDrive
ARM GAS  C:\Users\mrgas\AppData\Local\Temp\ccayE1U3.s 			page 4


  85              		.cfi_endproc
  86              	.LFE66:
  87              		.size	ISR_Timer1_handler, .-ISR_Timer1_handler
  88              		.section	.text.main,"ax",%progbits
  89              		.align	2
  90              		.global	main
  91              		.thumb
  92              		.thumb_func
  93              		.type	main, %function
  94              	main:
  95              	.LFB64:
  30:main.c        ****     CyGlobalIntEnable; //Enable global interrupts.
  96              		.loc 1 30 0
  97              		.cfi_startproc
  98              		@ Volatile: function does not return.
  99              		@ args = 0, pretend = 0, frame = 0
 100              		@ frame_needed = 0, uses_anonymous_args = 0
 101 0000 08B5     		push	{r3, lr}
 102              		.cfi_def_cfa_offset 8
 103              		.cfi_offset 3, -8
 104              		.cfi_offset 14, -4
  31:main.c        ****     //Inits
 105              		.loc 1 31 0
 106              		.syntax unified
 107              	@ 31 "main.c" 1
 108 0002 62B6     		CPSIE   i
 109              	@ 0 "" 2
  33:main.c        ****     timer1_isr_StartEx(ISR_Timer1_handler);
 110              		.loc 1 33 0
 111              		.thumb
 112              		.syntax unified
 113 0004 1248     		ldr	r0, .L15
 114 0006 FFF7FEFF 		bl	isr_uart_rx_StartEx
 115              	.LVL4:
  34:main.c        ****     UART_1_Start();
 116              		.loc 1 34 0
 117 000a 1248     		ldr	r0, .L15+4
 118 000c FFF7FEFF 		bl	timer1_isr_StartEx
 119              	.LVL5:
  35:main.c        ****     initStepperMotor();
 120              		.loc 1 35 0
 121 0010 FFF7FEFF 		bl	UART_1_Start
 122              	.LVL6:
  36:main.c        ****     //Start up message
 123              		.loc 1 36 0
 124 0014 FFF7FEFF 		bl	initStepperMotor
 125              	.LVL7:
  38:main.c        ****     UART_1_PutString("0: Stop\r\n");
 126              		.loc 1 38 0
 127 0018 0F48     		ldr	r0, .L15+8
 128 001a FFF7FEFF 		bl	UART_1_PutString
 129              	.LVL8:
  39:main.c        ****     UART_1_PutString("1: FullDrive\r\n");
 130              		.loc 1 39 0
 131 001e 0F48     		ldr	r0, .L15+12
 132 0020 FFF7FEFF 		bl	UART_1_PutString
 133              	.LVL9:
ARM GAS  C:\Users\mrgas\AppData\Local\Temp\ccayE1U3.s 			page 5


  40:main.c        ****     UART_1_PutString("2: WaveDrive\r\n");
 134              		.loc 1 40 0
 135 0024 0E48     		ldr	r0, .L15+16
 136 0026 FFF7FEFF 		bl	UART_1_PutString
 137              	.LVL10:
  41:main.c        ****     UART_1_PutString("q: Decrease speed\r\n");
 138              		.loc 1 41 0
 139 002a 0E48     		ldr	r0, .L15+20
 140 002c FFF7FEFF 		bl	UART_1_PutString
 141              	.LVL11:
  42:main.c        ****     UART_1_PutString("w: Increase speed\r\n");
 142              		.loc 1 42 0
 143 0030 0D48     		ldr	r0, .L15+24
 144 0032 FFF7FEFF 		bl	UART_1_PutString
 145              	.LVL12:
  43:main.c        ****     UART_1_PutString("a: Go forward\r\n");
 146              		.loc 1 43 0
 147 0036 0D48     		ldr	r0, .L15+28
 148 0038 FFF7FEFF 		bl	UART_1_PutString
 149              	.LVL13:
  44:main.c        ****     UART_1_PutString("s: Go backward\r\n");
 150              		.loc 1 44 0
 151 003c 0C48     		ldr	r0, .L15+32
 152 003e FFF7FEFF 		bl	UART_1_PutString
 153              	.LVL14:
  45:main.c        ****     UART_1_PutString("e: For one rotation\r\n");
 154              		.loc 1 45 0
 155 0042 0C48     		ldr	r0, .L15+36
 156 0044 FFF7FEFF 		bl	UART_1_PutString
 157              	.LVL15:
  46:main.c        **** 
 158              		.loc 1 46 0
 159 0048 0B48     		ldr	r0, .L15+40
 160 004a FFF7FEFF 		bl	UART_1_PutString
 161              	.LVL16:
 162              	.L13:
 163 004e FEE7     		b	.L13
 164              	.L16:
 165              		.align	2
 166              	.L15:
 167 0050 00000000 		.word	ISR_UART_rx_handler
 168 0054 00000000 		.word	ISR_Timer1_handler
 169 0058 00000000 		.word	.LC0
 170 005c 24000000 		.word	.LC1
 171 0060 30000000 		.word	.LC2
 172 0064 40000000 		.word	.LC3
 173 0068 50000000 		.word	.LC4
 174 006c 64000000 		.word	.LC5
 175 0070 78000000 		.word	.LC6
 176 0074 88000000 		.word	.LC7
 177 0078 9C000000 		.word	.LC8
 178              		.cfi_endproc
 179              	.LFE64:
 180              		.size	main, .-main
 181              		.section	.text.handleByteReceived,"ax",%progbits
 182              		.align	2
 183              		.global	handleByteReceived
ARM GAS  C:\Users\mrgas\AppData\Local\Temp\ccayE1U3.s 			page 6


 184              		.thumb
 185              		.thumb_func
 186              		.type	handleByteReceived, %function
 187              	handleByteReceived:
 188              	.LFB67:
  88:main.c        ****             break;
  89:main.c        ****         default:
  90:main.c        ****             break;
  91:main.c        ****     }
  92:main.c        **** }
  93:main.c        **** 
  94:main.c        **** 
  95:main.c        **** void handleByteReceived(uint8_t byteReceived)
  96:main.c        **** {
 189              		.loc 1 96 0
 190              		.cfi_startproc
 191              		@ args = 0, pretend = 0, frame = 0
 192              		@ frame_needed = 0, uses_anonymous_args = 0
 193              	.LVL17:
 194 0000 38B5     		push	{r3, r4, r5, lr}
 195              		.cfi_def_cfa_offset 16
 196              		.cfi_offset 3, -16
 197              		.cfi_offset 4, -12
 198              		.cfi_offset 5, -8
 199              		.cfi_offset 14, -4
  97:main.c        ****     //Handle the bytes received
  98:main.c        ****     switch(byteReceived)
 200              		.loc 1 98 0
 201 0002 3038     		subs	r0, r0, #48
 202              	.LVL18:
 203 0004 4728     		cmp	r0, #71
 204 0006 00F2BE80 		bhi	.L17
 205 000a DFE800F0 		tbb	[pc, r0]
 206              	.L20:
 207 000e AE       		.byte	(.L19-.L20)/2
 208 000f 67       		.byte	(.L21-.L20)/2
 209 0010 79       		.byte	(.L22-.L20)/2
 210 0011 8B       		.byte	(.L23-.L20)/2
 211 0012 BC       		.byte	(.L17-.L20)/2
 212 0013 BC       		.byte	(.L17-.L20)/2
 213 0014 BC       		.byte	(.L17-.L20)/2
 214 0015 BC       		.byte	(.L17-.L20)/2
 215 0016 BC       		.byte	(.L17-.L20)/2
 216 0017 BC       		.byte	(.L17-.L20)/2
 217 0018 BC       		.byte	(.L17-.L20)/2
 218 0019 BC       		.byte	(.L17-.L20)/2
 219 001a BC       		.byte	(.L17-.L20)/2
 220 001b BC       		.byte	(.L17-.L20)/2
 221 001c BC       		.byte	(.L17-.L20)/2
 222 001d BC       		.byte	(.L17-.L20)/2
 223 001e BC       		.byte	(.L17-.L20)/2
 224 001f BC       		.byte	(.L17-.L20)/2
 225 0020 BC       		.byte	(.L17-.L20)/2
 226 0021 BC       		.byte	(.L17-.L20)/2
 227 0022 BC       		.byte	(.L17-.L20)/2
 228 0023 BC       		.byte	(.L17-.L20)/2
 229 0024 BC       		.byte	(.L17-.L20)/2
ARM GAS  C:\Users\mrgas\AppData\Local\Temp\ccayE1U3.s 			page 7


 230 0025 BC       		.byte	(.L17-.L20)/2
 231 0026 BC       		.byte	(.L17-.L20)/2
 232 0027 BC       		.byte	(.L17-.L20)/2
 233 0028 BC       		.byte	(.L17-.L20)/2
 234 0029 BC       		.byte	(.L17-.L20)/2
 235 002a BC       		.byte	(.L17-.L20)/2
 236 002b BC       		.byte	(.L17-.L20)/2
 237 002c BC       		.byte	(.L17-.L20)/2
 238 002d BC       		.byte	(.L17-.L20)/2
 239 002e BC       		.byte	(.L17-.L20)/2
 240 002f BC       		.byte	(.L17-.L20)/2
 241 0030 BC       		.byte	(.L17-.L20)/2
 242 0031 BC       		.byte	(.L17-.L20)/2
 243 0032 BC       		.byte	(.L17-.L20)/2
 244 0033 BC       		.byte	(.L17-.L20)/2
 245 0034 BC       		.byte	(.L17-.L20)/2
 246 0035 BC       		.byte	(.L17-.L20)/2
 247 0036 BC       		.byte	(.L17-.L20)/2
 248 0037 BC       		.byte	(.L17-.L20)/2
 249 0038 BC       		.byte	(.L17-.L20)/2
 250 0039 BC       		.byte	(.L17-.L20)/2
 251 003a BC       		.byte	(.L17-.L20)/2
 252 003b BC       		.byte	(.L17-.L20)/2
 253 003c BC       		.byte	(.L17-.L20)/2
 254 003d BC       		.byte	(.L17-.L20)/2
 255 003e BC       		.byte	(.L17-.L20)/2
 256 003f 42       		.byte	(.L24-.L20)/2
 257 0040 BC       		.byte	(.L17-.L20)/2
 258 0041 BC       		.byte	(.L17-.L20)/2
 259 0042 BC       		.byte	(.L17-.L20)/2
 260 0043 9D       		.byte	(.L25-.L20)/2
 261 0044 BC       		.byte	(.L17-.L20)/2
 262 0045 BC       		.byte	(.L17-.L20)/2
 263 0046 BC       		.byte	(.L17-.L20)/2
 264 0047 BC       		.byte	(.L17-.L20)/2
 265 0048 BC       		.byte	(.L17-.L20)/2
 266 0049 BC       		.byte	(.L17-.L20)/2
 267 004a BC       		.byte	(.L17-.L20)/2
 268 004b BC       		.byte	(.L17-.L20)/2
 269 004c BC       		.byte	(.L17-.L20)/2
 270 004d BC       		.byte	(.L17-.L20)/2
 271 004e BC       		.byte	(.L17-.L20)/2
 272 004f 24       		.byte	(.L26-.L20)/2
 273 0050 BC       		.byte	(.L17-.L20)/2
 274 0051 56       		.byte	(.L27-.L20)/2
 275 0052 BC       		.byte	(.L17-.L20)/2
 276 0053 BC       		.byte	(.L17-.L20)/2
 277 0054 BC       		.byte	(.L17-.L20)/2
 278 0055 33       		.byte	(.L28-.L20)/2
 279              		.p2align 1
 280              	.L26:
  99:main.c        ****     {
 100:main.c        ****         case 'q' :
 101:main.c        ****             increaseSpeed();
 281              		.loc 1 101 0
 282 0056 FFF7FEFF 		bl	increaseSpeed
 283              	.LVL19:
ARM GAS  C:\Users\mrgas\AppData\Local\Temp\ccayE1U3.s 			page 8


 102:main.c        ****             snprintf(buffer,sizeof(buffer),"Speed is %d \r\n", speed);
 284              		.loc 1 102 0
 285 005a 4B4B     		ldr	r3, .L30
 286 005c 1B78     		ldrb	r3, [r3]	@ zero_extendqisi2
 287 005e 4B4C     		ldr	r4, .L30+4
 288 0060 4B4A     		ldr	r2, .L30+8
 289 0062 4FF48071 		mov	r1, #256
 290 0066 2046     		mov	r0, r4
 291 0068 FFF7FEFF 		bl	snprintf
 292              	.LVL20:
 103:main.c        ****             UART_1_PutString(buffer);
 293              		.loc 1 103 0
 294 006c 2046     		mov	r0, r4
 295 006e FFF7FEFF 		bl	UART_1_PutString
 296              	.LVL21:
 104:main.c        ****             break;
 297              		.loc 1 104 0
 298 0072 38BD     		pop	{r3, r4, r5, pc}
 299              	.L28:
 105:main.c        ****         
 106:main.c        ****         case 'w' :
 107:main.c        ****             decreaseSpeed();
 300              		.loc 1 107 0
 301 0074 FFF7FEFF 		bl	decreaseSpeed
 302              	.LVL22:
 108:main.c        ****             snprintf(buffer,sizeof(buffer),"Speed is %d \r\n", speed);
 303              		.loc 1 108 0
 304 0078 434B     		ldr	r3, .L30
 305 007a 1B78     		ldrb	r3, [r3]	@ zero_extendqisi2
 306 007c 434C     		ldr	r4, .L30+4
 307 007e 444A     		ldr	r2, .L30+8
 308 0080 4FF48071 		mov	r1, #256
 309 0084 2046     		mov	r0, r4
 310 0086 FFF7FEFF 		bl	snprintf
 311              	.LVL23:
 109:main.c        ****             UART_1_PutString(buffer);
 312              		.loc 1 109 0
 313 008a 2046     		mov	r0, r4
 314 008c FFF7FEFF 		bl	UART_1_PutString
 315              	.LVL24:
 110:main.c        ****             break;
 316              		.loc 1 110 0
 317 0090 38BD     		pop	{r3, r4, r5, pc}
 318              	.L24:
 111:main.c        ****             
 112:main.c        ****         case 'a' :
 113:main.c        ****             direction = true; //Forward
 319              		.loc 1 113 0
 320 0092 0122     		movs	r2, #1
 321 0094 3F4B     		ldr	r3, .L30+12
 322 0096 1A70     		strb	r2, [r3]
 114:main.c        ****             snprintf(buffer,sizeof(buffer),"Direction is forward\r\n");
 323              		.loc 1 114 0
 324 0098 3C4D     		ldr	r5, .L30+4
 325 009a 3F4C     		ldr	r4, .L30+16
 326 009c 0FCC     		ldmia	r4!, {r0, r1, r2, r3}
 327 009e 2860     		str	r0, [r5]	@ unaligned
ARM GAS  C:\Users\mrgas\AppData\Local\Temp\ccayE1U3.s 			page 9


 328 00a0 6960     		str	r1, [r5, #4]	@ unaligned
 329 00a2 AA60     		str	r2, [r5, #8]	@ unaligned
 330 00a4 EB60     		str	r3, [r5, #12]	@ unaligned
 331 00a6 2068     		ldr	r0, [r4]	@ unaligned
 332 00a8 2861     		str	r0, [r5, #16]	@ unaligned
 333 00aa A288     		ldrh	r2, [r4, #4]	@ unaligned
 334 00ac A379     		ldrb	r3, [r4, #6]	@ zero_extendqisi2
 335 00ae AA82     		strh	r2, [r5, #20]	@ unaligned
 336 00b0 AB75     		strb	r3, [r5, #22]
 115:main.c        ****             UART_1_PutString(buffer);
 337              		.loc 1 115 0
 338 00b2 2846     		mov	r0, r5
 339 00b4 FFF7FEFF 		bl	UART_1_PutString
 340              	.LVL25:
 116:main.c        ****             break;
 341              		.loc 1 116 0
 342 00b8 38BD     		pop	{r3, r4, r5, pc}
 343              	.L27:
 117:main.c        ****             
 118:main.c        ****         case 's' :
 119:main.c        ****             direction = false; //Backward
 344              		.loc 1 119 0
 345 00ba 0022     		movs	r2, #0
 346 00bc 354B     		ldr	r3, .L30+12
 347 00be 1A70     		strb	r2, [r3]
 120:main.c        ****             snprintf(buffer,sizeof(buffer),"Direction is backward\r\n");
 348              		.loc 1 120 0
 349 00c0 324D     		ldr	r5, .L30+4
 350 00c2 364C     		ldr	r4, .L30+20
 351 00c4 0FCC     		ldmia	r4!, {r0, r1, r2, r3}
 352 00c6 2860     		str	r0, [r5]	@ unaligned
 353 00c8 6960     		str	r1, [r5, #4]	@ unaligned
 354 00ca AA60     		str	r2, [r5, #8]	@ unaligned
 355 00cc EB60     		str	r3, [r5, #12]	@ unaligned
 356 00ce 03CC     		ldmia	r4!, {r0, r1}
 357 00d0 2861     		str	r0, [r5, #16]	@ unaligned
 358 00d2 6961     		str	r1, [r5, #20]	@ unaligned
 121:main.c        ****             UART_1_PutString(buffer);
 359              		.loc 1 121 0
 360 00d4 2846     		mov	r0, r5
 361 00d6 FFF7FEFF 		bl	UART_1_PutString
 362              	.LVL26:
 122:main.c        ****             break;
 363              		.loc 1 122 0
 364 00da 38BD     		pop	{r3, r4, r5, pc}
 365              	.L21:
 123:main.c        ****         
 124:main.c        ****         case '1' :
 125:main.c        ****             currentDrive = WaveDrive;
 366              		.loc 1 125 0
 367 00dc 0122     		movs	r2, #1
 368 00de 304B     		ldr	r3, .L30+24
 369 00e0 1A70     		strb	r2, [r3]
 126:main.c        ****             snprintf(buffer,sizeof(buffer),"Drive is Wave-drive\r\n");
 370              		.loc 1 126 0
 371 00e2 2A4D     		ldr	r5, .L30+4
 372 00e4 2F4C     		ldr	r4, .L30+28
ARM GAS  C:\Users\mrgas\AppData\Local\Temp\ccayE1U3.s 			page 10


 373 00e6 0FCC     		ldmia	r4!, {r0, r1, r2, r3}
 374 00e8 2860     		str	r0, [r5]	@ unaligned
 375 00ea 6960     		str	r1, [r5, #4]	@ unaligned
 376 00ec AA60     		str	r2, [r5, #8]	@ unaligned
 377 00ee EB60     		str	r3, [r5, #12]	@ unaligned
 378 00f0 2068     		ldr	r0, [r4]	@ unaligned
 379 00f2 2861     		str	r0, [r5, #16]	@ unaligned
 380 00f4 A388     		ldrh	r3, [r4, #4]	@ unaligned
 381 00f6 AB82     		strh	r3, [r5, #20]	@ unaligned
 127:main.c        ****             UART_1_PutString(buffer);
 382              		.loc 1 127 0
 383 00f8 2846     		mov	r0, r5
 384 00fa FFF7FEFF 		bl	UART_1_PutString
 385              	.LVL27:
 128:main.c        ****             break;
 386              		.loc 1 128 0
 387 00fe 38BD     		pop	{r3, r4, r5, pc}
 388              	.L22:
 129:main.c        ****         
 130:main.c        ****         case '2' :
 131:main.c        ****             currentDrive = FullDrive;
 389              		.loc 1 131 0
 390 0100 0222     		movs	r2, #2
 391 0102 274B     		ldr	r3, .L30+24
 392 0104 1A70     		strb	r2, [r3]
 132:main.c        ****             snprintf(buffer,sizeof(buffer),"Drive is full-drive\r\n");
 393              		.loc 1 132 0
 394 0106 214D     		ldr	r5, .L30+4
 395 0108 274C     		ldr	r4, .L30+32
 396 010a 0FCC     		ldmia	r4!, {r0, r1, r2, r3}
 397 010c 2860     		str	r0, [r5]	@ unaligned
 398 010e 6960     		str	r1, [r5, #4]	@ unaligned
 399 0110 AA60     		str	r2, [r5, #8]	@ unaligned
 400 0112 EB60     		str	r3, [r5, #12]	@ unaligned
 401 0114 2068     		ldr	r0, [r4]	@ unaligned
 402 0116 2861     		str	r0, [r5, #16]	@ unaligned
 403 0118 A388     		ldrh	r3, [r4, #4]	@ unaligned
 404 011a AB82     		strh	r3, [r5, #20]	@ unaligned
 133:main.c        ****             UART_1_PutString(buffer);
 405              		.loc 1 133 0
 406 011c 2846     		mov	r0, r5
 407 011e FFF7FEFF 		bl	UART_1_PutString
 408              	.LVL28:
 134:main.c        ****             break;
 409              		.loc 1 134 0
 410 0122 38BD     		pop	{r3, r4, r5, pc}
 411              	.L23:
 135:main.c        ****         
 136:main.c        ****         case '3' :
 137:main.c        ****             currentDrive = HalfDrive;
 412              		.loc 1 137 0
 413 0124 0322     		movs	r2, #3
 414 0126 1E4B     		ldr	r3, .L30+24
 415 0128 1A70     		strb	r2, [r3]
 138:main.c        ****             snprintf(buffer,sizeof(buffer),"Drive is half-drive\r\n");
 416              		.loc 1 138 0
 417 012a 184D     		ldr	r5, .L30+4
ARM GAS  C:\Users\mrgas\AppData\Local\Temp\ccayE1U3.s 			page 11


 418 012c 1F4C     		ldr	r4, .L30+36
 419 012e 0FCC     		ldmia	r4!, {r0, r1, r2, r3}
 420 0130 2860     		str	r0, [r5]	@ unaligned
 421 0132 6960     		str	r1, [r5, #4]	@ unaligned
 422 0134 AA60     		str	r2, [r5, #8]	@ unaligned
 423 0136 EB60     		str	r3, [r5, #12]	@ unaligned
 424 0138 2068     		ldr	r0, [r4]	@ unaligned
 425 013a 2861     		str	r0, [r5, #16]	@ unaligned
 426 013c A388     		ldrh	r3, [r4, #4]	@ unaligned
 427 013e AB82     		strh	r3, [r5, #20]	@ unaligned
 139:main.c        ****             UART_1_PutString(buffer);
 428              		.loc 1 139 0
 429 0140 2846     		mov	r0, r5
 430 0142 FFF7FEFF 		bl	UART_1_PutString
 431              	.LVL29:
 140:main.c        ****             break;
 432              		.loc 1 140 0
 433 0146 38BD     		pop	{r3, r4, r5, pc}
 434              	.L25:
 141:main.c        ****         
 142:main.c        ****         case 'e':
 143:main.c        ****             currentDrive = OneRotation;
 435              		.loc 1 143 0
 436 0148 0422     		movs	r2, #4
 437 014a 154B     		ldr	r3, .L30+24
 438 014c 1A70     		strb	r2, [r3]
 144:main.c        ****             snprintf(buffer,sizeof(buffer),"One rotation\r\n");
 439              		.loc 1 144 0
 440 014e 0F4C     		ldr	r4, .L30+4
 441 0150 174B     		ldr	r3, .L30+40
 442 0152 07CB     		ldmia	r3!, {r0, r1, r2}
 443 0154 2060     		str	r0, [r4]	@ unaligned
 444 0156 6160     		str	r1, [r4, #4]	@ unaligned
 445 0158 A260     		str	r2, [r4, #8]	@ unaligned
 446 015a 1A88     		ldrh	r2, [r3]	@ unaligned
 447 015c 9B78     		ldrb	r3, [r3, #2]	@ zero_extendqisi2
 448 015e A281     		strh	r2, [r4, #12]	@ unaligned
 449 0160 A373     		strb	r3, [r4, #14]
 145:main.c        ****             UART_1_PutString(buffer);
 450              		.loc 1 145 0
 451 0162 2046     		mov	r0, r4
 452 0164 FFF7FEFF 		bl	UART_1_PutString
 453              	.LVL30:
 146:main.c        ****             break;
 454              		.loc 1 146 0
 455 0168 38BD     		pop	{r3, r4, r5, pc}
 456              	.L19:
 147:main.c        ****         
 148:main.c        ****         case '0' :
 149:main.c        ****             currentDrive = None;
 457              		.loc 1 149 0
 458 016a 0022     		movs	r2, #0
 459 016c 0C4B     		ldr	r3, .L30+24
 460 016e 1A70     		strb	r2, [r3]
 150:main.c        ****             snprintf(buffer,sizeof(buffer),"STOP\r\n");
 461              		.loc 1 150 0
 462 0170 064B     		ldr	r3, .L30+4
ARM GAS  C:\Users\mrgas\AppData\Local\Temp\ccayE1U3.s 			page 12


 463 0172 104A     		ldr	r2, .L30+44
 464 0174 1068     		ldr	r0, [r2]	@ unaligned
 465 0176 1860     		str	r0, [r3]	@ unaligned
 466 0178 9188     		ldrh	r1, [r2, #4]	@ unaligned
 467 017a 9279     		ldrb	r2, [r2, #6]	@ zero_extendqisi2
 468 017c 9980     		strh	r1, [r3, #4]	@ unaligned
 469 017e 9A71     		strb	r2, [r3, #6]
 151:main.c        ****             UART_1_PutString(buffer);
 470              		.loc 1 151 0
 471 0180 1846     		mov	r0, r3
 472 0182 FFF7FEFF 		bl	UART_1_PutString
 473              	.LVL31:
 474              	.L17:
 475 0186 38BD     		pop	{r3, r4, r5, pc}
 476              	.L31:
 477              		.align	2
 478              	.L30:
 479 0188 00000000 		.word	speed
 480 018c 00000000 		.word	buffer
 481 0190 B4000000 		.word	.LC9
 482 0194 00000000 		.word	direction
 483 0198 C4000000 		.word	.LC10
 484 019c DC000000 		.word	.LC11
 485 01a0 00000000 		.word	currentDrive
 486 01a4 F4000000 		.word	.LC12
 487 01a8 0C010000 		.word	.LC13
 488 01ac 24010000 		.word	.LC14
 489 01b0 3C010000 		.word	.LC15
 490 01b4 4C010000 		.word	.LC16
 491              		.cfi_endproc
 492              	.LFE67:
 493              		.size	handleByteReceived, .-handleByteReceived
 494              		.section	.text.ISR_UART_rx_handler,"ax",%progbits
 495              		.align	2
 496              		.global	ISR_UART_rx_handler
 497              		.thumb
 498              		.thumb_func
 499              		.type	ISR_UART_rx_handler, %function
 500              	ISR_UART_rx_handler:
 501              	.LFB65:
  55:main.c        ****     uint8_t bytesToRead = UART_1_GetRxBufferSize();
 502              		.loc 1 55 0
 503              		.cfi_startproc
 504              		@ args = 0, pretend = 0, frame = 0
 505              		@ frame_needed = 0, uses_anonymous_args = 0
 506 0000 38B5     		push	{r3, r4, r5, lr}
 507              		.cfi_def_cfa_offset 16
 508              		.cfi_offset 3, -16
 509              		.cfi_offset 4, -12
 510              		.cfi_offset 5, -8
 511              		.cfi_offset 14, -4
  56:main.c        ****     //Read bytes...
 512              		.loc 1 56 0
 513 0002 FFF7FEFF 		bl	UART_1_GetRxBufferSize
 514              	.LVL32:
 515 0006 0446     		mov	r4, r0
 516              	.LVL33:
ARM GAS  C:\Users\mrgas\AppData\Local\Temp\ccayE1U3.s 			page 13


  58:main.c        ****     {
 517              		.loc 1 58 0
 518 0008 09E0     		b	.L33
 519              	.L34:
 520              	.LBB2:
  60:main.c        ****         UART_1_WriteTxData(byteReceived); // echo back
 521              		.loc 1 60 0
 522 000a FFF7FEFF 		bl	UART_1_ReadRxData
 523              	.LVL34:
 524 000e 0546     		mov	r5, r0
 525              	.LVL35:
  61:main.c        ****         
 526              		.loc 1 61 0
 527 0010 FFF7FEFF 		bl	UART_1_WriteTxData
 528              	.LVL36:
  63:main.c        ****         
 529              		.loc 1 63 0
 530 0014 2846     		mov	r0, r5
 531 0016 FFF7FEFF 		bl	handleByteReceived
 532              	.LVL37:
  65:main.c        ****     }
 533              		.loc 1 65 0
 534 001a 013C     		subs	r4, r4, #1
 535              	.LVL38:
 536 001c E4B2     		uxtb	r4, r4
 537              	.LVL39:
 538              	.L33:
 539              	.LBE2:
  58:main.c        ****     {
 540              		.loc 1 58 0
 541 001e 002C     		cmp	r4, #0
 542 0020 F3D1     		bne	.L34
  67:main.c        **** 
 543              		.loc 1 67 0
 544 0022 38BD     		pop	{r3, r4, r5, pc}
 545              		.cfi_endproc
 546              	.LFE65:
 547              		.size	ISR_UART_rx_handler, .-ISR_UART_rx_handler
 548              		.comm	buffer,256,4
 549              		.section	.rodata.str1.4,"aMS",%progbits,1
 550              		.align	2
 551              	.LC0:
 552 0000 44432D4D 		.ascii	"DC-Motor-PWM application started\015\012\000"
 552      6F746F72 
 552      2D50574D 
 552      20617070 
 552      6C696361 
 553 0023 00       		.space	1
 554              	.LC1:
 555 0024 303A2053 		.ascii	"0: Stop\015\012\000"
 555      746F700D 
 555      0A00
 556 002e 0000     		.space	2
 557              	.LC2:
 558 0030 313A2046 		.ascii	"1: FullDrive\015\012\000"
 558      756C6C44 
 558      72697665 
ARM GAS  C:\Users\mrgas\AppData\Local\Temp\ccayE1U3.s 			page 14


 558      0D0A00
 559 003f 00       		.space	1
 560              	.LC3:
 561 0040 323A2057 		.ascii	"2: WaveDrive\015\012\000"
 561      61766544 
 561      72697665 
 561      0D0A00
 562 004f 00       		.space	1
 563              	.LC4:
 564 0050 713A2044 		.ascii	"q: Decrease speed\015\012\000"
 564      65637265 
 564      61736520 
 564      73706565 
 564      640D0A00 
 565              	.LC5:
 566 0064 773A2049 		.ascii	"w: Increase speed\015\012\000"
 566      6E637265 
 566      61736520 
 566      73706565 
 566      640D0A00 
 567              	.LC6:
 568 0078 613A2047 		.ascii	"a: Go forward\015\012\000"
 568      6F20666F 
 568      72776172 
 568      640D0A00 
 569              	.LC7:
 570 0088 733A2047 		.ascii	"s: Go backward\015\012\000"
 570      6F206261 
 570      636B7761 
 570      72640D0A 
 570      00
 571 0099 000000   		.space	3
 572              	.LC8:
 573 009c 653A2046 		.ascii	"e: For one rotation\015\012\000"
 573      6F72206F 
 573      6E652072 
 573      6F746174 
 573      696F6E0D 
 574 00b2 0000     		.space	2
 575              	.LC9:
 576 00b4 53706565 		.ascii	"Speed is %d \015\012\000"
 576      64206973 
 576      20256420 
 576      0D0A00
 577 00c3 00       		.space	1
 578              	.LC10:
 579 00c4 44697265 		.ascii	"Direction is forward\015\012\000"
 579      6374696F 
 579      6E206973 
 579      20666F72 
 579      77617264 
 580 00db 00       		.space	1
 581              	.LC11:
 582 00dc 44697265 		.ascii	"Direction is backward\015\012\000"
 582      6374696F 
 582      6E206973 
 582      20626163 
ARM GAS  C:\Users\mrgas\AppData\Local\Temp\ccayE1U3.s 			page 15


 582      6B776172 
 583              	.LC12:
 584 00f4 44726976 		.ascii	"Drive is Wave-drive\015\012\000"
 584      65206973 
 584      20576176 
 584      652D6472 
 584      6976650D 
 585 010a 0000     		.space	2
 586              	.LC13:
 587 010c 44726976 		.ascii	"Drive is full-drive\015\012\000"
 587      65206973 
 587      2066756C 
 587      6C2D6472 
 587      6976650D 
 588 0122 0000     		.space	2
 589              	.LC14:
 590 0124 44726976 		.ascii	"Drive is half-drive\015\012\000"
 590      65206973 
 590      2068616C 
 590      662D6472 
 590      6976650D 
 591 013a 0000     		.space	2
 592              	.LC15:
 593 013c 4F6E6520 		.ascii	"One rotation\015\012\000"
 593      726F7461 
 593      74696F6E 
 593      0D0A00
 594 014b 00       		.space	1
 595              	.LC16:
 596 014c 53544F50 		.ascii	"STOP\015\012\000"
 596      0D0A00
 597              		.text
 598              	.Letext0:
 599              		.file 2 "c:\\program files (x86)\\cypress\\psoc creator\\4.2\\psoc creator\\import\\gnu\\arm\\5.4.
 600              		.file 3 "c:\\program files (x86)\\cypress\\psoc creator\\4.2\\psoc creator\\import\\gnu\\arm\\5.4.
 601              		.file 4 "Generated_Source\\PSoC5/core_cm3.h"
 602              		.file 5 "StepperMotor.h"
 603              		.file 6 "Generated_Source\\PSoC5/isr_uart_rx.h"
 604              		.file 7 "Generated_Source\\PSoC5/timer1_isr.h"
 605              		.file 8 "Generated_Source\\PSoC5/UART_1.h"
 606              		.file 9 "c:\\program files (x86)\\cypress\\psoc creator\\4.2\\psoc creator\\import\\gnu\\arm\\5.4.