ARM GAS  C:\Users\mrgas\AppData\Local\Temp\cc68osxc.s 			page 1


   1              		.syntax unified
   2              		.cpu cortex-m3
   3              		.fpu softvfp
   4              		.eabi_attribute 20, 1
   5              		.eabi_attribute 21, 1
   6              		.eabi_attribute 23, 3
   7              		.eabi_attribute 24, 1
   8              		.eabi_attribute 25, 1
   9              		.eabi_attribute 26, 1
  10              		.eabi_attribute 30, 1
  11              		.eabi_attribute 34, 1
  12              		.eabi_attribute 18, 4
  13              		.thumb
  14              		.syntax unified
  15              		.file	"StepperMotor.c"
  16              		.text
  17              	.Ltext0:
  18              		.cfi_sections	.debug_frame
  19              		.section	.text.initStepperMotor,"ax",%progbits
  20              		.align	2
  21              		.global	initStepperMotor
  22              		.thumb
  23              		.thumb_func
  24              		.type	initStepperMotor, %function
  25              	initStepperMotor:
  26              	.LFB64:
  27              		.file 1 "StepperMotor.c"
   1:StepperMotor.c **** /* ========================================
   2:StepperMotor.c ****  *
   3:StepperMotor.c ****  * Copyright YOUR COMPANY, THE YEAR
   4:StepperMotor.c ****  * All Rights Reserved
   5:StepperMotor.c ****  * UNPUBLISHED, LICENSED SOFTWARE.
   6:StepperMotor.c ****  *
   7:StepperMotor.c ****  * CONFIDENTIAL AND PROPRIETARY INFORMATION
   8:StepperMotor.c ****  * WHICH IS THE PROPERTY OF your company.
   9:StepperMotor.c ****  *
  10:StepperMotor.c ****  * ========================================
  11:StepperMotor.c **** */
  12:StepperMotor.c **** #include "StepperMotor.h"
  13:StepperMotor.c **** #include "project.h"
  14:StepperMotor.c **** 
  15:StepperMotor.c **** 
  16:StepperMotor.c **** volatile uint8_t speed = 10; //The speed is controlled with a delay. Lower variable = Higher speed
  17:StepperMotor.c **** volatile bool direction = true; //True if forward
  18:StepperMotor.c **** volatile enum Drive currentDrive = None; //The Current drive
  19:StepperMotor.c **** volatile uint32_t currentStep = 0;
  20:StepperMotor.c **** 
  21:StepperMotor.c **** 
  22:StepperMotor.c **** void initStepperMotor(void)
  23:StepperMotor.c **** {
  28              		.loc 1 23 0
  29              		.cfi_startproc
  30              		@ args = 0, pretend = 0, frame = 0
  31              		@ frame_needed = 0, uses_anonymous_args = 0
  32 0000 08B5     		push	{r3, lr}
  33              		.cfi_def_cfa_offset 8
  34              		.cfi_offset 3, -8
ARM GAS  C:\Users\mrgas\AppData\Local\Temp\cc68osxc.s 			page 2


  35              		.cfi_offset 14, -4
  24:StepperMotor.c ****     Timer_1_Start();
  36              		.loc 1 24 0
  37 0002 FFF7FEFF 		bl	Timer_1_Start
  38              	.LVL0:
  39 0006 08BD     		pop	{r3, pc}
  40              		.cfi_endproc
  41              	.LFE64:
  42              		.size	initStepperMotor, .-initStepperMotor
  43              		.section	.text.increaseSpeed,"ax",%progbits
  44              		.align	2
  45              		.global	increaseSpeed
  46              		.thumb
  47              		.thumb_func
  48              		.type	increaseSpeed, %function
  49              	increaseSpeed:
  50              	.LFB65:
  25:StepperMotor.c **** }
  26:StepperMotor.c **** 
  27:StepperMotor.c **** 
  28:StepperMotor.c **** void increaseSpeed(void)
  29:StepperMotor.c **** {
  51              		.loc 1 29 0
  52              		.cfi_startproc
  53              		@ args = 0, pretend = 0, frame = 0
  54              		@ frame_needed = 0, uses_anonymous_args = 0
  55              		@ link register save eliminated.
  30:StepperMotor.c ****     if((--speed) < SPEEDMIN)
  56              		.loc 1 30 0
  57 0000 054A     		ldr	r2, .L5
  58 0002 1378     		ldrb	r3, [r2]	@ zero_extendqisi2
  59 0004 013B     		subs	r3, r3, #1
  60 0006 DBB2     		uxtb	r3, r3
  61 0008 1370     		strb	r3, [r2]
  62 000a 022B     		cmp	r3, #2
  63 000c 02D8     		bhi	.L3
  31:StepperMotor.c ****         speed = SPEEDMIN;
  64              		.loc 1 31 0
  65 000e 0322     		movs	r2, #3
  66 0010 014B     		ldr	r3, .L5
  67 0012 1A70     		strb	r2, [r3]
  68              	.L3:
  69 0014 7047     		bx	lr
  70              	.L6:
  71 0016 00BF     		.align	2
  72              	.L5:
  73 0018 00000000 		.word	.LANCHOR0
  74              		.cfi_endproc
  75              	.LFE65:
  76              		.size	increaseSpeed, .-increaseSpeed
  77              		.section	.text.decreaseSpeed,"ax",%progbits
  78              		.align	2
  79              		.global	decreaseSpeed
  80              		.thumb
  81              		.thumb_func
  82              		.type	decreaseSpeed, %function
  83              	decreaseSpeed:
ARM GAS  C:\Users\mrgas\AppData\Local\Temp\cc68osxc.s 			page 3


  84              	.LFB66:
  32:StepperMotor.c **** }
  33:StepperMotor.c **** 
  34:StepperMotor.c **** void decreaseSpeed(void)
  35:StepperMotor.c **** {
  85              		.loc 1 35 0
  86              		.cfi_startproc
  87              		@ args = 0, pretend = 0, frame = 256
  88              		@ frame_needed = 0, uses_anonymous_args = 0
  89 0000 00B5     		push	{lr}
  90              		.cfi_def_cfa_offset 4
  91              		.cfi_offset 14, -4
  92 0002 C1B0     		sub	sp, sp, #260
  93              		.cfi_def_cfa_offset 264
  36:StepperMotor.c ****     if((++speed) > SPEEDMAX)
  94              		.loc 1 36 0
  95 0004 0B4A     		ldr	r2, .L10
  96 0006 1378     		ldrb	r3, [r2]	@ zero_extendqisi2
  97 0008 0133     		adds	r3, r3, #1
  98 000a DBB2     		uxtb	r3, r3
  99 000c 1370     		strb	r3, [r2]
 100 000e 192B     		cmp	r3, #25
 101 0010 02D9     		bls	.L8
  37:StepperMotor.c ****         speed = SPEEDMAX;
 102              		.loc 1 37 0
 103 0012 1922     		movs	r2, #25
 104 0014 074B     		ldr	r3, .L10
 105 0016 1A70     		strb	r2, [r3]
 106              	.L8:
  38:StepperMotor.c ****     char buffer[256];
  39:StepperMotor.c ****     snprintf(buffer,sizeof(buffer),"Speed is %d \r\n", speed);
 107              		.loc 1 39 0
 108 0018 064B     		ldr	r3, .L10
 109 001a 1B78     		ldrb	r3, [r3]	@ zero_extendqisi2
 110 001c 064A     		ldr	r2, .L10+4
 111 001e 4FF48071 		mov	r1, #256
 112 0022 6846     		mov	r0, sp
 113 0024 FFF7FEFF 		bl	snprintf
 114              	.LVL1:
  40:StepperMotor.c ****     UART_1_PutString(buffer);
 115              		.loc 1 40 0
 116 0028 6846     		mov	r0, sp
 117 002a FFF7FEFF 		bl	UART_1_PutString
 118              	.LVL2:
  41:StepperMotor.c ****     
  42:StepperMotor.c **** }
 119              		.loc 1 42 0
 120 002e 41B0     		add	sp, sp, #260
 121              		.cfi_def_cfa_offset 4
 122              		@ sp needed
 123 0030 5DF804FB 		ldr	pc, [sp], #4
 124              	.L11:
 125              		.align	2
 126              	.L10:
 127 0034 00000000 		.word	.LANCHOR0
 128 0038 00000000 		.word	.LC0
 129              		.cfi_endproc
ARM GAS  C:\Users\mrgas\AppData\Local\Temp\cc68osxc.s 			page 4


 130              	.LFE66:
 131              		.size	decreaseSpeed, .-decreaseSpeed
 132              		.section	.text.stop,"ax",%progbits
 133              		.align	2
 134              		.global	stop
 135              		.thumb
 136              		.thumb_func
 137              		.type	stop, %function
 138              	stop:
 139              	.LFB67:
  43:StepperMotor.c **** 
  44:StepperMotor.c **** void stop(void)
  45:StepperMotor.c **** {
 140              		.loc 1 45 0
 141              		.cfi_startproc
 142              		@ args = 0, pretend = 0, frame = 0
 143              		@ frame_needed = 0, uses_anonymous_args = 0
 144 0000 08B5     		push	{r3, lr}
 145              		.cfi_def_cfa_offset 8
 146              		.cfi_offset 3, -8
 147              		.cfi_offset 14, -4
  46:StepperMotor.c ****     UART_1_PutString("Stop\r\n");
 148              		.loc 1 46 0
 149 0002 0248     		ldr	r0, .L14
 150 0004 FFF7FEFF 		bl	UART_1_PutString
 151              	.LVL3:
 152 0008 08BD     		pop	{r3, pc}
 153              	.L15:
 154 000a 00BF     		.align	2
 155              	.L14:
 156 000c 10000000 		.word	.LC1
 157              		.cfi_endproc
 158              	.LFE67:
 159              		.size	stop, .-stop
 160              		.section	.text.setStep,"ax",%progbits
 161              		.align	2
 162              		.global	setStep
 163              		.thumb
 164              		.thumb_func
 165              		.type	setStep, %function
 166              	setStep:
 167              	.LFB73:
  47:StepperMotor.c ****     
  48:StepperMotor.c **** }
  49:StepperMotor.c **** 
  50:StepperMotor.c **** 
  51:StepperMotor.c **** void fullDrive(void)
  52:StepperMotor.c **** {
  53:StepperMotor.c ****     if (direction)
  54:StepperMotor.c ****     {
  55:StepperMotor.c ****         setStep(1,1,0,0);
  56:StepperMotor.c ****         setStep(0,1,1,0);
  57:StepperMotor.c ****         setStep(0,0,1,1);
  58:StepperMotor.c ****         setStep(1,0,0,1);
  59:StepperMotor.c ****     }
  60:StepperMotor.c ****     else
  61:StepperMotor.c ****     {
ARM GAS  C:\Users\mrgas\AppData\Local\Temp\cc68osxc.s 			page 5


  62:StepperMotor.c ****         setStep(1,0,0,1);
  63:StepperMotor.c ****         setStep(0,0,1,1);
  64:StepperMotor.c ****         setStep(0,1,1,0);
  65:StepperMotor.c ****         setStep(1,1,0,0);
  66:StepperMotor.c ****     }
  67:StepperMotor.c **** }
  68:StepperMotor.c **** 
  69:StepperMotor.c **** void waveDrive(void)
  70:StepperMotor.c **** {
  71:StepperMotor.c ****     if (direction)
  72:StepperMotor.c ****     {
  73:StepperMotor.c ****         setStep(1,0,0,0);
  74:StepperMotor.c ****         setStep(0,1,0,0);
  75:StepperMotor.c ****         setStep(0,0,1,0);
  76:StepperMotor.c ****         setStep(0,0,0,1);
  77:StepperMotor.c ****     }
  78:StepperMotor.c ****     else
  79:StepperMotor.c ****     {
  80:StepperMotor.c ****         setStep(0,0,0,1);
  81:StepperMotor.c ****         setStep(0,0,1,0);
  82:StepperMotor.c ****         setStep(0,1,0,0);
  83:StepperMotor.c ****         setStep(1,0,0,0);
  84:StepperMotor.c ****     }
  85:StepperMotor.c **** }
  86:StepperMotor.c **** 
  87:StepperMotor.c **** void halfDrive(void)
  88:StepperMotor.c **** {
  89:StepperMotor.c ****     if (direction)
  90:StepperMotor.c ****     {
  91:StepperMotor.c ****         setStep(1,1,0,0);
  92:StepperMotor.c ****         setStep(0,1,0,0);
  93:StepperMotor.c ****         setStep(0,1,1,0);
  94:StepperMotor.c ****         setStep(0,0,1,0);
  95:StepperMotor.c ****         setStep(0,0,1,1);
  96:StepperMotor.c ****         setStep(0,0,0,1);
  97:StepperMotor.c ****         setStep(1,0,0,1);
  98:StepperMotor.c ****         setStep(1,0,0,0);
  99:StepperMotor.c ****     }
 100:StepperMotor.c ****     else
 101:StepperMotor.c ****     {
 102:StepperMotor.c ****         setStep(1,0,0,0);
 103:StepperMotor.c ****         setStep(1,0,0,1);
 104:StepperMotor.c ****         setStep(0,0,0,1);
 105:StepperMotor.c ****         setStep(0,0,1,1);
 106:StepperMotor.c ****         setStep(0,0,1,0);
 107:StepperMotor.c ****         setStep(0,1,1,0);
 108:StepperMotor.c ****         setStep(0,1,0,0);
 109:StepperMotor.c ****         setStep(1,1,0,0);
 110:StepperMotor.c ****     }
 111:StepperMotor.c **** }
 112:StepperMotor.c **** 
 113:StepperMotor.c **** 
 114:StepperMotor.c **** void step(uint32_t steps)
 115:StepperMotor.c **** {
 116:StepperMotor.c ****     for (uint32_t i = 0; i < steps; i++)
 117:StepperMotor.c ****     {
 118:StepperMotor.c ****         waveDrive();
ARM GAS  C:\Users\mrgas\AppData\Local\Temp\cc68osxc.s 			page 6


 119:StepperMotor.c ****     }
 120:StepperMotor.c **** }
 121:StepperMotor.c **** 
 122:StepperMotor.c **** void oneRotaion()
 123:StepperMotor.c **** {
 124:StepperMotor.c ****     if(currentStep++ != 512)
 125:StepperMotor.c ****     {
 126:StepperMotor.c ****         waveDrive();
 127:StepperMotor.c ****     }
 128:StepperMotor.c ****     else
 129:StepperMotor.c ****     {
 130:StepperMotor.c ****         currentStep = 0;
 131:StepperMotor.c ****         currentDrive = None; 
 132:StepperMotor.c ****     }
 133:StepperMotor.c **** }
 134:StepperMotor.c ****             
 135:StepperMotor.c **** void setStep(uint8_t a1, uint8_t a2,uint8_t b1,uint8_t b2)
 136:StepperMotor.c **** {
 168              		.loc 1 136 0
 169              		.cfi_startproc
 170              		@ args = 0, pretend = 0, frame = 0
 171              		@ frame_needed = 0, uses_anonymous_args = 0
 172              	.LVL4:
 173 0000 70B5     		push	{r4, r5, r6, lr}
 174              		.cfi_def_cfa_offset 16
 175              		.cfi_offset 4, -16
 176              		.cfi_offset 5, -12
 177              		.cfi_offset 6, -8
 178              		.cfi_offset 14, -4
 179 0002 0E46     		mov	r6, r1
 180 0004 1546     		mov	r5, r2
 181 0006 1C46     		mov	r4, r3
 137:StepperMotor.c ****     a1_Write(a1);
 182              		.loc 1 137 0
 183 0008 FFF7FEFF 		bl	a1_Write
 184              	.LVL5:
 138:StepperMotor.c ****     a2_Write(a2);
 185              		.loc 1 138 0
 186 000c 3046     		mov	r0, r6
 187 000e FFF7FEFF 		bl	a2_Write
 188              	.LVL6:
 139:StepperMotor.c ****     b1_Write(b1);
 189              		.loc 1 139 0
 190 0012 2846     		mov	r0, r5
 191 0014 FFF7FEFF 		bl	b1_Write
 192              	.LVL7:
 140:StepperMotor.c ****     b2_Write(b2);
 193              		.loc 1 140 0
 194 0018 2046     		mov	r0, r4
 195 001a FFF7FEFF 		bl	b2_Write
 196              	.LVL8:
 141:StepperMotor.c ****     CyDelay(speed);
 197              		.loc 1 141 0
 198 001e 024B     		ldr	r3, .L18
 199 0020 1878     		ldrb	r0, [r3]	@ zero_extendqisi2
 200 0022 FFF7FEFF 		bl	CyDelay
 201              	.LVL9:
ARM GAS  C:\Users\mrgas\AppData\Local\Temp\cc68osxc.s 			page 7


 202 0026 70BD     		pop	{r4, r5, r6, pc}
 203              	.L19:
 204              		.align	2
 205              	.L18:
 206 0028 00000000 		.word	.LANCHOR0
 207              		.cfi_endproc
 208              	.LFE73:
 209              		.size	setStep, .-setStep
 210              		.section	.text.fullDrive,"ax",%progbits
 211              		.align	2
 212              		.global	fullDrive
 213              		.thumb
 214              		.thumb_func
 215              		.type	fullDrive, %function
 216              	fullDrive:
 217              	.LFB68:
  52:StepperMotor.c ****     if (direction)
 218              		.loc 1 52 0
 219              		.cfi_startproc
 220              		@ args = 0, pretend = 0, frame = 0
 221              		@ frame_needed = 0, uses_anonymous_args = 0
 222 0000 08B5     		push	{r3, lr}
 223              		.cfi_def_cfa_offset 8
 224              		.cfi_offset 3, -8
 225              		.cfi_offset 14, -4
  53:StepperMotor.c ****     {
 226              		.loc 1 53 0
 227 0002 1B4B     		ldr	r3, .L24
 228 0004 5B78     		ldrb	r3, [r3, #1]	@ zero_extendqisi2
 229 0006 13F0FF0F 		tst	r3, #255
 230 000a 18D0     		beq	.L21
  55:StepperMotor.c ****         setStep(0,1,1,0);
 231              		.loc 1 55 0
 232 000c 0023     		movs	r3, #0
 233 000e 1A46     		mov	r2, r3
 234 0010 0121     		movs	r1, #1
 235 0012 0846     		mov	r0, r1
 236 0014 FFF7FEFF 		bl	setStep
 237              	.LVL10:
  56:StepperMotor.c ****         setStep(0,0,1,1);
 238              		.loc 1 56 0
 239 0018 0023     		movs	r3, #0
 240 001a 0122     		movs	r2, #1
 241 001c 1146     		mov	r1, r2
 242 001e 1846     		mov	r0, r3
 243 0020 FFF7FEFF 		bl	setStep
 244              	.LVL11:
  57:StepperMotor.c ****         setStep(1,0,0,1);
 245              		.loc 1 57 0
 246 0024 0123     		movs	r3, #1
 247 0026 1A46     		mov	r2, r3
 248 0028 0021     		movs	r1, #0
 249 002a 0846     		mov	r0, r1
 250 002c FFF7FEFF 		bl	setStep
 251              	.LVL12:
  58:StepperMotor.c ****     }
 252              		.loc 1 58 0
ARM GAS  C:\Users\mrgas\AppData\Local\Temp\cc68osxc.s 			page 8


 253 0030 0123     		movs	r3, #1
 254 0032 0022     		movs	r2, #0
 255 0034 1146     		mov	r1, r2
 256 0036 1846     		mov	r0, r3
 257 0038 FFF7FEFF 		bl	setStep
 258              	.LVL13:
 259 003c 08BD     		pop	{r3, pc}
 260              	.L21:
  62:StepperMotor.c ****         setStep(0,0,1,1);
 261              		.loc 1 62 0
 262 003e 0123     		movs	r3, #1
 263 0040 0022     		movs	r2, #0
 264 0042 1146     		mov	r1, r2
 265 0044 1846     		mov	r0, r3
 266 0046 FFF7FEFF 		bl	setStep
 267              	.LVL14:
  63:StepperMotor.c ****         setStep(0,1,1,0);
 268              		.loc 1 63 0
 269 004a 0123     		movs	r3, #1
 270 004c 1A46     		mov	r2, r3
 271 004e 0021     		movs	r1, #0
 272 0050 0846     		mov	r0, r1
 273 0052 FFF7FEFF 		bl	setStep
 274              	.LVL15:
  64:StepperMotor.c ****         setStep(1,1,0,0);
 275              		.loc 1 64 0
 276 0056 0023     		movs	r3, #0
 277 0058 0122     		movs	r2, #1
 278 005a 1146     		mov	r1, r2
 279 005c 1846     		mov	r0, r3
 280 005e FFF7FEFF 		bl	setStep
 281              	.LVL16:
  65:StepperMotor.c ****     }
 282              		.loc 1 65 0
 283 0062 0023     		movs	r3, #0
 284 0064 1A46     		mov	r2, r3
 285 0066 0121     		movs	r1, #1
 286 0068 0846     		mov	r0, r1
 287 006a FFF7FEFF 		bl	setStep
 288              	.LVL17:
 289 006e 08BD     		pop	{r3, pc}
 290              	.L25:
 291              		.align	2
 292              	.L24:
 293 0070 00000000 		.word	.LANCHOR0
 294              		.cfi_endproc
 295              	.LFE68:
 296              		.size	fullDrive, .-fullDrive
 297              		.section	.text.waveDrive,"ax",%progbits
 298              		.align	2
 299              		.global	waveDrive
 300              		.thumb
 301              		.thumb_func
 302              		.type	waveDrive, %function
 303              	waveDrive:
 304              	.LFB69:
  70:StepperMotor.c ****     if (direction)
ARM GAS  C:\Users\mrgas\AppData\Local\Temp\cc68osxc.s 			page 9


 305              		.loc 1 70 0
 306              		.cfi_startproc
 307              		@ args = 0, pretend = 0, frame = 0
 308              		@ frame_needed = 0, uses_anonymous_args = 0
 309 0000 08B5     		push	{r3, lr}
 310              		.cfi_def_cfa_offset 8
 311              		.cfi_offset 3, -8
 312              		.cfi_offset 14, -4
  71:StepperMotor.c ****     {
 313              		.loc 1 71 0
 314 0002 1B4B     		ldr	r3, .L30
 315 0004 5B78     		ldrb	r3, [r3, #1]	@ zero_extendqisi2
 316 0006 13F0FF0F 		tst	r3, #255
 317 000a 18D0     		beq	.L27
  73:StepperMotor.c ****         setStep(0,1,0,0);
 318              		.loc 1 73 0
 319 000c 0023     		movs	r3, #0
 320 000e 1A46     		mov	r2, r3
 321 0010 1946     		mov	r1, r3
 322 0012 0120     		movs	r0, #1
 323 0014 FFF7FEFF 		bl	setStep
 324              	.LVL18:
  74:StepperMotor.c ****         setStep(0,0,1,0);
 325              		.loc 1 74 0
 326 0018 0023     		movs	r3, #0
 327 001a 1A46     		mov	r2, r3
 328 001c 0121     		movs	r1, #1
 329 001e 1846     		mov	r0, r3
 330 0020 FFF7FEFF 		bl	setStep
 331              	.LVL19:
  75:StepperMotor.c ****         setStep(0,0,0,1);
 332              		.loc 1 75 0
 333 0024 0023     		movs	r3, #0
 334 0026 0122     		movs	r2, #1
 335 0028 1946     		mov	r1, r3
 336 002a 1846     		mov	r0, r3
 337 002c FFF7FEFF 		bl	setStep
 338              	.LVL20:
  76:StepperMotor.c ****     }
 339              		.loc 1 76 0
 340 0030 0123     		movs	r3, #1
 341 0032 0022     		movs	r2, #0
 342 0034 1146     		mov	r1, r2
 343 0036 1046     		mov	r0, r2
 344 0038 FFF7FEFF 		bl	setStep
 345              	.LVL21:
 346 003c 08BD     		pop	{r3, pc}
 347              	.L27:
  80:StepperMotor.c ****         setStep(0,0,1,0);
 348              		.loc 1 80 0
 349 003e 0123     		movs	r3, #1
 350 0040 0022     		movs	r2, #0
 351 0042 1146     		mov	r1, r2
 352 0044 1046     		mov	r0, r2
 353 0046 FFF7FEFF 		bl	setStep
 354              	.LVL22:
  81:StepperMotor.c ****         setStep(0,1,0,0);
ARM GAS  C:\Users\mrgas\AppData\Local\Temp\cc68osxc.s 			page 10


 355              		.loc 1 81 0
 356 004a 0023     		movs	r3, #0
 357 004c 0122     		movs	r2, #1
 358 004e 1946     		mov	r1, r3
 359 0050 1846     		mov	r0, r3
 360 0052 FFF7FEFF 		bl	setStep
 361              	.LVL23:
  82:StepperMotor.c ****         setStep(1,0,0,0);
 362              		.loc 1 82 0
 363 0056 0023     		movs	r3, #0
 364 0058 1A46     		mov	r2, r3
 365 005a 0121     		movs	r1, #1
 366 005c 1846     		mov	r0, r3
 367 005e FFF7FEFF 		bl	setStep
 368              	.LVL24:
  83:StepperMotor.c ****     }
 369              		.loc 1 83 0
 370 0062 0023     		movs	r3, #0
 371 0064 1A46     		mov	r2, r3
 372 0066 1946     		mov	r1, r3
 373 0068 0120     		movs	r0, #1
 374 006a FFF7FEFF 		bl	setStep
 375              	.LVL25:
 376 006e 08BD     		pop	{r3, pc}
 377              	.L31:
 378              		.align	2
 379              	.L30:
 380 0070 00000000 		.word	.LANCHOR0
 381              		.cfi_endproc
 382              	.LFE69:
 383              		.size	waveDrive, .-waveDrive
 384              		.section	.text.step,"ax",%progbits
 385              		.align	2
 386              		.global	step
 387              		.thumb
 388              		.thumb_func
 389              		.type	step, %function
 390              	step:
 391              	.LFB71:
 115:StepperMotor.c ****     for (uint32_t i = 0; i < steps; i++)
 392              		.loc 1 115 0
 393              		.cfi_startproc
 394              		@ args = 0, pretend = 0, frame = 0
 395              		@ frame_needed = 0, uses_anonymous_args = 0
 396              	.LVL26:
 397 0000 38B5     		push	{r3, r4, r5, lr}
 398              		.cfi_def_cfa_offset 16
 399              		.cfi_offset 3, -16
 400              		.cfi_offset 4, -12
 401              		.cfi_offset 5, -8
 402              		.cfi_offset 14, -4
 403 0002 0546     		mov	r5, r0
 404              	.LVL27:
 405              	.LBB2:
 116:StepperMotor.c ****     {
 406              		.loc 1 116 0
 407 0004 0024     		movs	r4, #0
ARM GAS  C:\Users\mrgas\AppData\Local\Temp\cc68osxc.s 			page 11


 408 0006 02E0     		b	.L33
 409              	.LVL28:
 410              	.L34:
 118:StepperMotor.c ****     }
 411              		.loc 1 118 0 discriminator 3
 412 0008 FFF7FEFF 		bl	waveDrive
 413              	.LVL29:
 116:StepperMotor.c ****     {
 414              		.loc 1 116 0 discriminator 3
 415 000c 0134     		adds	r4, r4, #1
 416              	.LVL30:
 417              	.L33:
 116:StepperMotor.c ****     {
 418              		.loc 1 116 0 is_stmt 0 discriminator 1
 419 000e AC42     		cmp	r4, r5
 420 0010 FAD3     		bcc	.L34
 421              	.LBE2:
 120:StepperMotor.c **** 
 422              		.loc 1 120 0 is_stmt 1
 423 0012 38BD     		pop	{r3, r4, r5, pc}
 424              		.cfi_endproc
 425              	.LFE71:
 426              		.size	step, .-step
 427              		.section	.text.oneRotaion,"ax",%progbits
 428              		.align	2
 429              		.global	oneRotaion
 430              		.thumb
 431              		.thumb_func
 432              		.type	oneRotaion, %function
 433              	oneRotaion:
 434              	.LFB72:
 123:StepperMotor.c ****     if(currentStep++ != 512)
 435              		.loc 1 123 0
 436              		.cfi_startproc
 437              		@ args = 0, pretend = 0, frame = 0
 438              		@ frame_needed = 0, uses_anonymous_args = 0
 439 0000 08B5     		push	{r3, lr}
 440              		.cfi_def_cfa_offset 8
 441              		.cfi_offset 3, -8
 442              		.cfi_offset 14, -4
 124:StepperMotor.c ****     {
 443              		.loc 1 124 0
 444 0002 074A     		ldr	r2, .L40
 445 0004 1368     		ldr	r3, [r2]
 446 0006 591C     		adds	r1, r3, #1
 447 0008 1160     		str	r1, [r2]
 448 000a B3F5007F 		cmp	r3, #512
 449 000e 02D0     		beq	.L37
 126:StepperMotor.c ****     }
 450              		.loc 1 126 0
 451 0010 FFF7FEFF 		bl	waveDrive
 452              	.LVL31:
 453 0014 08BD     		pop	{r3, pc}
 454              	.L37:
 130:StepperMotor.c ****         currentDrive = None; 
 455              		.loc 1 130 0
 456 0016 024B     		ldr	r3, .L40
ARM GAS  C:\Users\mrgas\AppData\Local\Temp\cc68osxc.s 			page 12


 457 0018 0022     		movs	r2, #0
 458 001a 1A60     		str	r2, [r3]
 131:StepperMotor.c ****     }
 459              		.loc 1 131 0
 460 001c 1A71     		strb	r2, [r3, #4]
 461 001e 08BD     		pop	{r3, pc}
 462              	.L41:
 463              		.align	2
 464              	.L40:
 465 0020 00000000 		.word	.LANCHOR1
 466              		.cfi_endproc
 467              	.LFE72:
 468              		.size	oneRotaion, .-oneRotaion
 469              		.section	.text.halfDrive,"ax",%progbits
 470              		.align	2
 471              		.global	halfDrive
 472              		.thumb
 473              		.thumb_func
 474              		.type	halfDrive, %function
 475              	halfDrive:
 476              	.LFB70:
  88:StepperMotor.c ****     if (direction)
 477              		.loc 1 88 0
 478              		.cfi_startproc
 479              		@ args = 0, pretend = 0, frame = 0
 480              		@ frame_needed = 0, uses_anonymous_args = 0
 481 0000 08B5     		push	{r3, lr}
 482              		.cfi_def_cfa_offset 8
 483              		.cfi_offset 3, -8
 484              		.cfi_offset 14, -4
  89:StepperMotor.c ****     {
 485              		.loc 1 89 0
 486 0002 334B     		ldr	r3, .L46
 487 0004 5B78     		ldrb	r3, [r3, #1]	@ zero_extendqisi2
 488 0006 13F0FF0F 		tst	r3, #255
 489 000a 30D0     		beq	.L43
  91:StepperMotor.c ****         setStep(0,1,0,0);
 490              		.loc 1 91 0
 491 000c 0023     		movs	r3, #0
 492 000e 1A46     		mov	r2, r3
 493 0010 0121     		movs	r1, #1
 494 0012 0846     		mov	r0, r1
 495 0014 FFF7FEFF 		bl	setStep
 496              	.LVL32:
  92:StepperMotor.c ****         setStep(0,1,1,0);
 497              		.loc 1 92 0
 498 0018 0023     		movs	r3, #0
 499 001a 1A46     		mov	r2, r3
 500 001c 0121     		movs	r1, #1
 501 001e 1846     		mov	r0, r3
 502 0020 FFF7FEFF 		bl	setStep
 503              	.LVL33:
  93:StepperMotor.c ****         setStep(0,0,1,0);
 504              		.loc 1 93 0
 505 0024 0023     		movs	r3, #0
 506 0026 0122     		movs	r2, #1
 507 0028 1146     		mov	r1, r2
ARM GAS  C:\Users\mrgas\AppData\Local\Temp\cc68osxc.s 			page 13


 508 002a 1846     		mov	r0, r3
 509 002c FFF7FEFF 		bl	setStep
 510              	.LVL34:
  94:StepperMotor.c ****         setStep(0,0,1,1);
 511              		.loc 1 94 0
 512 0030 0023     		movs	r3, #0
 513 0032 0122     		movs	r2, #1
 514 0034 1946     		mov	r1, r3
 515 0036 1846     		mov	r0, r3
 516 0038 FFF7FEFF 		bl	setStep
 517              	.LVL35:
  95:StepperMotor.c ****         setStep(0,0,0,1);
 518              		.loc 1 95 0
 519 003c 0123     		movs	r3, #1
 520 003e 1A46     		mov	r2, r3
 521 0040 0021     		movs	r1, #0
 522 0042 0846     		mov	r0, r1
 523 0044 FFF7FEFF 		bl	setStep
 524              	.LVL36:
  96:StepperMotor.c ****         setStep(1,0,0,1);
 525              		.loc 1 96 0
 526 0048 0123     		movs	r3, #1
 527 004a 0022     		movs	r2, #0
 528 004c 1146     		mov	r1, r2
 529 004e 1046     		mov	r0, r2
 530 0050 FFF7FEFF 		bl	setStep
 531              	.LVL37:
  97:StepperMotor.c ****         setStep(1,0,0,0);
 532              		.loc 1 97 0
 533 0054 0123     		movs	r3, #1
 534 0056 0022     		movs	r2, #0
 535 0058 1146     		mov	r1, r2
 536 005a 1846     		mov	r0, r3
 537 005c FFF7FEFF 		bl	setStep
 538              	.LVL38:
  98:StepperMotor.c ****     }
 539              		.loc 1 98 0
 540 0060 0023     		movs	r3, #0
 541 0062 1A46     		mov	r2, r3
 542 0064 1946     		mov	r1, r3
 543 0066 0120     		movs	r0, #1
 544 0068 FFF7FEFF 		bl	setStep
 545              	.LVL39:
 546 006c 08BD     		pop	{r3, pc}
 547              	.L43:
 102:StepperMotor.c ****         setStep(1,0,0,1);
 548              		.loc 1 102 0
 549 006e 0023     		movs	r3, #0
 550 0070 1A46     		mov	r2, r3
 551 0072 1946     		mov	r1, r3
 552 0074 0120     		movs	r0, #1
 553 0076 FFF7FEFF 		bl	setStep
 554              	.LVL40:
 103:StepperMotor.c ****         setStep(0,0,0,1);
 555              		.loc 1 103 0
 556 007a 0123     		movs	r3, #1
 557 007c 0022     		movs	r2, #0
ARM GAS  C:\Users\mrgas\AppData\Local\Temp\cc68osxc.s 			page 14


 558 007e 1146     		mov	r1, r2
 559 0080 1846     		mov	r0, r3
 560 0082 FFF7FEFF 		bl	setStep
 561              	.LVL41:
 104:StepperMotor.c ****         setStep(0,0,1,1);
 562              		.loc 1 104 0
 563 0086 0123     		movs	r3, #1
 564 0088 0022     		movs	r2, #0
 565 008a 1146     		mov	r1, r2
 566 008c 1046     		mov	r0, r2
 567 008e FFF7FEFF 		bl	setStep
 568              	.LVL42:
 105:StepperMotor.c ****         setStep(0,0,1,0);
 569              		.loc 1 105 0
 570 0092 0123     		movs	r3, #1
 571 0094 1A46     		mov	r2, r3
 572 0096 0021     		movs	r1, #0
 573 0098 0846     		mov	r0, r1
 574 009a FFF7FEFF 		bl	setStep
 575              	.LVL43:
 106:StepperMotor.c ****         setStep(0,1,1,0);
 576              		.loc 1 106 0
 577 009e 0023     		movs	r3, #0
 578 00a0 0122     		movs	r2, #1
 579 00a2 1946     		mov	r1, r3
 580 00a4 1846     		mov	r0, r3
 581 00a6 FFF7FEFF 		bl	setStep
 582              	.LVL44:
 107:StepperMotor.c ****         setStep(0,1,0,0);
 583              		.loc 1 107 0
 584 00aa 0023     		movs	r3, #0
 585 00ac 0122     		movs	r2, #1
 586 00ae 1146     		mov	r1, r2
 587 00b0 1846     		mov	r0, r3
 588 00b2 FFF7FEFF 		bl	setStep
 589              	.LVL45:
 108:StepperMotor.c ****         setStep(1,1,0,0);
 590              		.loc 1 108 0
 591 00b6 0023     		movs	r3, #0
 592 00b8 1A46     		mov	r2, r3
 593 00ba 0121     		movs	r1, #1
 594 00bc 1846     		mov	r0, r3
 595 00be FFF7FEFF 		bl	setStep
 596              	.LVL46:
 109:StepperMotor.c ****     }
 597              		.loc 1 109 0
 598 00c2 0023     		movs	r3, #0
 599 00c4 1A46     		mov	r2, r3
 600 00c6 0121     		movs	r1, #1
 601 00c8 0846     		mov	r0, r1
 602 00ca FFF7FEFF 		bl	setStep
 603              	.LVL47:
 604 00ce 08BD     		pop	{r3, pc}
 605              	.L47:
 606              		.align	2
 607              	.L46:
 608 00d0 00000000 		.word	.LANCHOR0
ARM GAS  C:\Users\mrgas\AppData\Local\Temp\cc68osxc.s 			page 15


 609              		.cfi_endproc
 610              	.LFE70:
 611              		.size	halfDrive, .-halfDrive
 612              		.global	currentStep
 613              		.global	currentDrive
 614              		.global	direction
 615              		.global	speed
 616              		.data
 617              		.set	.LANCHOR0,. + 0
 618              		.type	speed, %object
 619              		.size	speed, 1
 620              	speed:
 621 0000 0A       		.byte	10
 622              		.type	direction, %object
 623              		.size	direction, 1
 624              	direction:
 625 0001 01       		.byte	1
 626              		.section	.rodata.str1.4,"aMS",%progbits,1
 627              		.align	2
 628              	.LC0:
 629 0000 53706565 		.ascii	"Speed is %d \015\012\000"
 629      64206973 
 629      20256420 
 629      0D0A00
 630 000f 00       		.space	1
 631              	.LC1:
 632 0010 53746F70 		.ascii	"Stop\015\012\000"
 632      0D0A00
 633              		.bss
 634              		.align	2
 635              		.set	.LANCHOR1,. + 0
 636              		.type	currentStep, %object
 637              		.size	currentStep, 4
 638              	currentStep:
 639 0000 00000000 		.space	4
 640              		.type	currentDrive, %object
 641              		.size	currentDrive, 1
 642              	currentDrive:
 643 0004 00       		.space	1
 644              		.text
 645              	.Letext0:
 646              		.file 2 "c:\\program files (x86)\\cypress\\psoc creator\\4.2\\psoc creator\\import\\gnu\\arm\\5.4.
 647              		.file 3 "c:\\program files (x86)\\cypress\\psoc creator\\4.2\\psoc creator\\import\\gnu\\arm\\5.4.
 648              		.file 4 "Generated_Source\\PSoC5/core_cm3.h"
 649              		.file 5 "Generated_Source\\PSoC5/Timer_1.h"
 650              		.file 6 "c:\\program files (x86)\\cypress\\psoc creator\\4.2\\psoc creator\\import\\gnu\\arm\\5.4.
 651              		.file 7 "Generated_Source\\PSoC5/UART_1.h"
 652              		.file 8 "Generated_Source\\PSoC5/a1.h"
 653              		.file 9 "Generated_Source\\PSoC5/a2.h"
 654              		.file 10 "Generated_Source\\PSoC5/b1.h"
 655              		.file 11 "Generated_Source\\PSoC5/b2.h"
 656              		.file 12 "Generated_Source\\PSoC5/CyLib.h"
 657              		.file 13 "StepperMotor.h"