ARM GAS  C:\Users\mrgas\AppData\Local\Temp\cc9BbzWx.s 			page 1


   1              		.syntax unified
   2              		.cpu cortex-m3
   3              		.fpu softvfp
   4              		.eabi_attribute 20, 1
   5              		.eabi_attribute 21, 1
   6              		.eabi_attribute 23, 3
   7              		.eabi_attribute 24, 1
   8              		.eabi_attribute 25, 1
   9              		.eabi_attribute 26, 1
  10              		.eabi_attribute 30, 1
  11              		.eabi_attribute 34, 1
  12              		.eabi_attribute 18, 4
  13              		.thumb
  14              		.syntax unified
  15              		.file	"DC_Motor.c"
  16              		.text
  17              	.Ltext0:
  18              		.cfi_sections	.debug_frame
  19              		.section	.text.decreaseSpeed,"ax",%progbits
  20              		.align	2
  21              		.global	decreaseSpeed
  22              		.thumb
  23              		.thumb_func
  24              		.type	decreaseSpeed, %function
  25              	decreaseSpeed:
  26              	.LFB64:
  27              		.file 1 "DC_Motor.c"
   1:DC_Motor.c    **** /* ========================================
   2:DC_Motor.c    ****  *
   3:DC_Motor.c    ****  * Copyright YOUR COMPANY, THE YEAR
   4:DC_Motor.c    ****  * All Rights Reserved
   5:DC_Motor.c    ****  * UNPUBLISHED, LICENSED SOFTWARE.
   6:DC_Motor.c    ****  *
   7:DC_Motor.c    ****  * CONFIDENTIAL AND PROPRIETARY INFORMATION
   8:DC_Motor.c    ****  * WHICH IS THE PROPERTY OF your company.
   9:DC_Motor.c    ****  *
  10:DC_Motor.c    ****  * ========================================
  11:DC_Motor.c    **** */
  12:DC_Motor.c    **** #include "DC_Motor.h"
  13:DC_Motor.c    **** 
  14:DC_Motor.c    **** volatile uint8_t speed = 50;
  15:DC_Motor.c    **** 
  16:DC_Motor.c    **** void decreaseSpeed()
  17:DC_Motor.c    **** {
  28              		.loc 1 17 0
  29              		.cfi_startproc
  30              		@ args = 0, pretend = 0, frame = 256
  31              		@ frame_needed = 0, uses_anonymous_args = 0
  32 0000 10B5     		push	{r4, lr}
  33              		.cfi_def_cfa_offset 8
  34              		.cfi_offset 4, -8
  35              		.cfi_offset 14, -4
  36 0002 C0B0     		sub	sp, sp, #256
  37              		.cfi_def_cfa_offset 264
  18:DC_Motor.c    ****     if((speed -= 5 )< SPEEDMIN) //Decrease speed if above SPEEDMIN
  38              		.loc 1 18 0
  39 0004 094C     		ldr	r4, .L3
ARM GAS  C:\Users\mrgas\AppData\Local\Temp\cc9BbzWx.s 			page 2


  40 0006 2378     		ldrb	r3, [r4]	@ zero_extendqisi2
  41 0008 053B     		subs	r3, r3, #5
  42 000a DBB2     		uxtb	r3, r3
  43 000c 2370     		strb	r3, [r4]
  19:DC_Motor.c    ****         speed = SPEEDMIN;
  20:DC_Motor.c    ****     PWM_1_WriteCompare(speed); //Update the PWM
  44              		.loc 1 20 0
  45 000e 2078     		ldrb	r0, [r4]	@ zero_extendqisi2
  46 0010 FFF7FEFF 		bl	PWM_1_WriteCompare
  47              	.LVL0:
  21:DC_Motor.c    ****     char buffer[256];
  22:DC_Motor.c    ****     snprintf(buffer,sizeof(buffer),"PWM is on %d percent duty cycle\r\n", speed);
  48              		.loc 1 22 0
  49 0014 2378     		ldrb	r3, [r4]	@ zero_extendqisi2
  50 0016 064A     		ldr	r2, .L3+4
  51 0018 4FF48071 		mov	r1, #256
  52 001c 6846     		mov	r0, sp
  53 001e FFF7FEFF 		bl	snprintf
  54              	.LVL1:
  23:DC_Motor.c    ****     UART_1_PutString(buffer);
  55              		.loc 1 23 0
  56 0022 6846     		mov	r0, sp
  57 0024 FFF7FEFF 		bl	UART_1_PutString
  58              	.LVL2:
  24:DC_Motor.c    **** }
  59              		.loc 1 24 0
  60 0028 40B0     		add	sp, sp, #256
  61              		.cfi_def_cfa_offset 8
  62              		@ sp needed
  63 002a 10BD     		pop	{r4, pc}
  64              	.L4:
  65              		.align	2
  66              	.L3:
  67 002c 00000000 		.word	.LANCHOR0
  68 0030 00000000 		.word	.LC0
  69              		.cfi_endproc
  70              	.LFE64:
  71              		.size	decreaseSpeed, .-decreaseSpeed
  72              		.section	.text.increaseSpeed,"ax",%progbits
  73              		.align	2
  74              		.global	increaseSpeed
  75              		.thumb
  76              		.thumb_func
  77              		.type	increaseSpeed, %function
  78              	increaseSpeed:
  79              	.LFB65:
  25:DC_Motor.c    **** 
  26:DC_Motor.c    **** 
  27:DC_Motor.c    **** 
  28:DC_Motor.c    **** void increaseSpeed()
  29:DC_Motor.c    **** {
  80              		.loc 1 29 0
  81              		.cfi_startproc
  82              		@ args = 0, pretend = 0, frame = 256
  83              		@ frame_needed = 0, uses_anonymous_args = 0
  84 0000 10B5     		push	{r4, lr}
  85              		.cfi_def_cfa_offset 8
ARM GAS  C:\Users\mrgas\AppData\Local\Temp\cc9BbzWx.s 			page 3


  86              		.cfi_offset 4, -8
  87              		.cfi_offset 14, -4
  88 0002 C0B0     		sub	sp, sp, #256
  89              		.cfi_def_cfa_offset 264
  30:DC_Motor.c    ****     if((speed += 5) > SPEEDMAX) //Increase speed variable if below SPEEDMAX
  90              		.loc 1 30 0
  91 0004 0C4A     		ldr	r2, .L8
  92 0006 1378     		ldrb	r3, [r2]	@ zero_extendqisi2
  93 0008 0533     		adds	r3, r3, #5
  94 000a DBB2     		uxtb	r3, r3
  95 000c 1370     		strb	r3, [r2]
  96 000e 642B     		cmp	r3, #100
  97 0010 02D9     		bls	.L6
  31:DC_Motor.c    ****         speed = SPEEDMAX;
  98              		.loc 1 31 0
  99 0012 6422     		movs	r2, #100
 100 0014 084B     		ldr	r3, .L8
 101 0016 1A70     		strb	r2, [r3]
 102              	.L6:
  32:DC_Motor.c    ****     PWM_1_WriteCompare(speed); //Update the PWM
 103              		.loc 1 32 0
 104 0018 074C     		ldr	r4, .L8
 105 001a 2078     		ldrb	r0, [r4]	@ zero_extendqisi2
 106 001c FFF7FEFF 		bl	PWM_1_WriteCompare
 107              	.LVL3:
  33:DC_Motor.c    ****     char buffer[256];
  34:DC_Motor.c    ****     snprintf(buffer,sizeof(buffer),"PWM is on %d percent duty cycle\r\n", speed);
 108              		.loc 1 34 0
 109 0020 2378     		ldrb	r3, [r4]	@ zero_extendqisi2
 110 0022 064A     		ldr	r2, .L8+4
 111 0024 4FF48071 		mov	r1, #256
 112 0028 6846     		mov	r0, sp
 113 002a FFF7FEFF 		bl	snprintf
 114              	.LVL4:
  35:DC_Motor.c    ****     UART_1_PutString(buffer);
 115              		.loc 1 35 0
 116 002e 6846     		mov	r0, sp
 117 0030 FFF7FEFF 		bl	UART_1_PutString
 118              	.LVL5:
  36:DC_Motor.c    ****     
  37:DC_Motor.c    **** }
 119              		.loc 1 37 0
 120 0034 40B0     		add	sp, sp, #256
 121              		.cfi_def_cfa_offset 8
 122              		@ sp needed
 123 0036 10BD     		pop	{r4, pc}
 124              	.L9:
 125              		.align	2
 126              	.L8:
 127 0038 00000000 		.word	.LANCHOR0
 128 003c 00000000 		.word	.LC0
 129              		.cfi_endproc
 130              	.LFE65:
 131              		.size	increaseSpeed, .-increaseSpeed
 132              		.section	.text.driveForwards,"ax",%progbits
 133              		.align	2
 134              		.global	driveForwards
ARM GAS  C:\Users\mrgas\AppData\Local\Temp\cc9BbzWx.s 			page 4


 135              		.thumb
 136              		.thumb_func
 137              		.type	driveForwards, %function
 138              	driveForwards:
 139              	.LFB66:
  38:DC_Motor.c    **** 
  39:DC_Motor.c    **** void driveForwards()
  40:DC_Motor.c    **** {
 140              		.loc 1 40 0
 141              		.cfi_startproc
 142              		@ args = 0, pretend = 0, frame = 0
 143              		@ frame_needed = 0, uses_anonymous_args = 0
 144 0000 08B5     		push	{r3, lr}
 145              		.cfi_def_cfa_offset 8
 146              		.cfi_offset 3, -8
 147              		.cfi_offset 14, -4
  41:DC_Motor.c    ****     UART_1_PutString("Set direction: forwards\r\n");
 148              		.loc 1 41 0
 149 0002 0548     		ldr	r0, .L12
 150 0004 FFF7FEFF 		bl	UART_1_PutString
 151              	.LVL6:
  42:DC_Motor.c    ****     FW_Pin_Write(1u); //Enable the forward pin
 152              		.loc 1 42 0
 153 0008 0120     		movs	r0, #1
 154 000a FFF7FEFF 		bl	FW_Pin_Write
 155              	.LVL7:
  43:DC_Motor.c    ****     BW_Pin_Write(0u); //Disable the backward pin
 156              		.loc 1 43 0
 157 000e 0020     		movs	r0, #0
 158 0010 FFF7FEFF 		bl	BW_Pin_Write
 159              	.LVL8:
 160 0014 08BD     		pop	{r3, pc}
 161              	.L13:
 162 0016 00BF     		.align	2
 163              	.L12:
 164 0018 24000000 		.word	.LC1
 165              		.cfi_endproc
 166              	.LFE66:
 167              		.size	driveForwards, .-driveForwards
 168              		.section	.text.driveBackwards,"ax",%progbits
 169              		.align	2
 170              		.global	driveBackwards
 171              		.thumb
 172              		.thumb_func
 173              		.type	driveBackwards, %function
 174              	driveBackwards:
 175              	.LFB67:
  44:DC_Motor.c    **** }
  45:DC_Motor.c    **** 
  46:DC_Motor.c    **** void driveBackwards()
  47:DC_Motor.c    **** {
 176              		.loc 1 47 0
 177              		.cfi_startproc
 178              		@ args = 0, pretend = 0, frame = 0
 179              		@ frame_needed = 0, uses_anonymous_args = 0
 180 0000 08B5     		push	{r3, lr}
 181              		.cfi_def_cfa_offset 8
ARM GAS  C:\Users\mrgas\AppData\Local\Temp\cc9BbzWx.s 			page 5


 182              		.cfi_offset 3, -8
 183              		.cfi_offset 14, -4
  48:DC_Motor.c    ****     UART_1_PutString("Set direction: backwards\r\n");
 184              		.loc 1 48 0
 185 0002 0548     		ldr	r0, .L16
 186 0004 FFF7FEFF 		bl	UART_1_PutString
 187              	.LVL9:
  49:DC_Motor.c    ****     FW_Pin_Write(0u); //Disable the forward pin
 188              		.loc 1 49 0
 189 0008 0020     		movs	r0, #0
 190 000a FFF7FEFF 		bl	FW_Pin_Write
 191              	.LVL10:
  50:DC_Motor.c    ****     BW_Pin_Write(1u); //Enable the backward pin
 192              		.loc 1 50 0
 193 000e 0120     		movs	r0, #1
 194 0010 FFF7FEFF 		bl	BW_Pin_Write
 195              	.LVL11:
 196 0014 08BD     		pop	{r3, pc}
 197              	.L17:
 198 0016 00BF     		.align	2
 199              	.L16:
 200 0018 40000000 		.word	.LC2
 201              		.cfi_endproc
 202              	.LFE67:
 203              		.size	driveBackwards, .-driveBackwards
 204              		.section	.text.stop,"ax",%progbits
 205              		.align	2
 206              		.global	stop
 207              		.thumb
 208              		.thumb_func
 209              		.type	stop, %function
 210              	stop:
 211              	.LFB68:
  51:DC_Motor.c    **** }
  52:DC_Motor.c    **** 
  53:DC_Motor.c    **** void stop()
  54:DC_Motor.c    **** {
 212              		.loc 1 54 0
 213              		.cfi_startproc
 214              		@ args = 0, pretend = 0, frame = 0
 215              		@ frame_needed = 0, uses_anonymous_args = 0
 216 0000 08B5     		push	{r3, lr}
 217              		.cfi_def_cfa_offset 8
 218              		.cfi_offset 3, -8
 219              		.cfi_offset 14, -4
  55:DC_Motor.c    ****     UART_1_PutString("Stop\r\n");
 220              		.loc 1 55 0
 221 0002 0348     		ldr	r0, .L20
 222 0004 FFF7FEFF 		bl	UART_1_PutString
 223              	.LVL12:
  56:DC_Motor.c    ****     PWM_1_WriteCompare(0); //Set the duty cycle to 0.
 224              		.loc 1 56 0
 225 0008 0020     		movs	r0, #0
 226 000a FFF7FEFF 		bl	PWM_1_WriteCompare
 227              	.LVL13:
 228 000e 08BD     		pop	{r3, pc}
 229              	.L21:
ARM GAS  C:\Users\mrgas\AppData\Local\Temp\cc9BbzWx.s 			page 6


 230              		.align	2
 231              	.L20:
 232 0010 5C000000 		.word	.LC3
 233              		.cfi_endproc
 234              	.LFE68:
 235              		.size	stop, .-stop
 236              		.global	speed
 237              		.data
 238              		.set	.LANCHOR0,. + 0
 239              		.type	speed, %object
 240              		.size	speed, 1
 241              	speed:
 242 0000 32       		.byte	50
 243              		.section	.rodata.str1.4,"aMS",%progbits,1
 244              		.align	2
 245              	.LC0:
 246 0000 50574D20 		.ascii	"PWM is on %d percent duty cycle\015\012\000"
 246      6973206F 
 246      6E202564 
 246      20706572 
 246      63656E74 
 247 0022 0000     		.space	2
 248              	.LC1:
 249 0024 53657420 		.ascii	"Set direction: forwards\015\012\000"
 249      64697265 
 249      6374696F 
 249      6E3A2066 
 249      6F727761 
 250 003e 0000     		.space	2
 251              	.LC2:
 252 0040 53657420 		.ascii	"Set direction: backwards\015\012\000"
 252      64697265 
 252      6374696F 
 252      6E3A2062 
 252      61636B77 
 253 005b 00       		.space	1
 254              	.LC3:
 255 005c 53746F70 		.ascii	"Stop\015\012\000"
 255      0D0A00
 256              		.text
 257              	.Letext0:
 258              		.file 2 "c:\\program files (x86)\\cypress\\psoc creator\\4.2\\psoc creator\\import\\gnu\\arm\\5.4.
 259              		.file 3 "c:\\program files (x86)\\cypress\\psoc creator\\4.2\\psoc creator\\import\\gnu\\arm\\5.4.
 260              		.file 4 "Generated_Source\\PSoC5/core_cm3.h"
 261              		.file 5 "Generated_Source\\PSoC5/PWM_1.h"
 262              		.file 6 "c:\\program files (x86)\\cypress\\psoc creator\\4.2\\psoc creator\\import\\gnu\\arm\\5.4.
 263              		.file 7 "Generated_Source\\PSoC5/UART_1.h"
 264              		.file 8 "Generated_Source\\PSoC5/FW_Pin.h"
 265              		.file 9 "Generated_Source\\PSoC5/BW_Pin.h"